; ModuleID = '53/1330.c'
source_filename = "53/1330.c"
target datalayout = "e-m:e-p270:32:32-p271:32:32-p272:64:64-i64:64-f80:128-n8:16:32:64-S128"
target triple = "x86_64-pc-linux-gnu"

@.str = private unnamed_addr constant [3 x i8] c"%d\00", align 1
@.str.1 = private unnamed_addr constant [4 x i8] c"%d,\00", align 1
@.str.2 = private unnamed_addr constant [4 x i8] c"%d\0A\00", align 1

; Function Attrs: noinline nounwind uwtable
define dso_local void @main() #0 {
  %1 = alloca i32, align 4
  %2 = alloca i32, align 4
  %3 = alloca i32, align 4
  %4 = alloca [301 x i32], align 16
  %5 = alloca i32, align 4
  %6 = alloca i32, align 4
  %7 = alloca i32, align 4
  store i32 0, i32* %3, align 4
  %8 = bitcast [301 x i32]* %4 to i8*
  call void @llvm.memset.p0i8.i64(i8* align 16 %8, i8 0, i64 1204, i1 false)
  %9 = call i32 (i8*, ...) @__isoc99_scanf(i8* getelementptr inbounds ([3 x i8], [3 x i8]* @.str, i64 0, i64 0), i32* %5)
  store i32 0, i32* %1, align 4
  br label %10

10:                                               ; preds = %42, %0
  %11 = load i32, i32* %1, align 4
  %12 = load i32, i32* %5, align 4
  %13 = icmp slt i32 %11, %12
  br i1 %13, label %14, label %45

14:                                               ; preds = %10
  store i32 1, i32* %7, align 4
  %15 = call i32 (i8*, ...) @__isoc99_scanf(i8* getelementptr inbounds ([3 x i8], [3 x i8]* @.str, i64 0, i64 0), i32* %6)
  store i32 0, i32* %2, align 4
  br label %16

16:                                               ; preds = %29, %14
  %17 = load i32, i32* %2, align 4
  %18 = load i32, i32* %3, align 4
  %19 = icmp slt i32 %17, %18
  br i1 %19, label %20, label %32

20:                                               ; preds = %16
  %21 = load i32, i32* %6, align 4
  %22 = load i32, i32* %2, align 4
  %23 = sext i32 %22 to i64
  %24 = getelementptr inbounds [301 x i32], [301 x i32]* %4, i64 0, i64 %23
  %25 = load i32, i32* %24, align 4
  %26 = icmp eq i32 %21, %25
  br i1 %26, label %27, label %28

27:                                               ; preds = %20
  store i32 0, i32* %7, align 4
  br label %32

28:                                               ; preds = %20
  br label %29

29:                                               ; preds = %28
  %30 = load i32, i32* %2, align 4
  %31 = add nsw i32 %30, 1
  store i32 %31, i32* %2, align 4
  br label %16

32:                                               ; preds = %27, %16
  %33 = load i32, i32* %7, align 4
  %34 = icmp eq i32 %33, 1
  br i1 %34, label %35, label %41

35:                                               ; preds = %32
  %36 = load i32, i32* %6, align 4
  %37 = load i32, i32* %3, align 4
  %38 = add nsw i32 %37, 1
  store i32 %38, i32* %3, align 4
  %39 = sext i32 %37 to i64
  %40 = getelementptr inbounds [301 x i32], [301 x i32]* %4, i64 0, i64 %39
  store i32 %36, i32* %40, align 4
  br label %41

41:                                               ; preds = %35, %32
  br label %42

42:                                               ; preds = %41
  %43 = load i32, i32* %1, align 4
  %44 = add nsw i32 %43, 1
  store i32 %44, i32* %1, align 4
  br label %10

45:                                               ; preds = %10
  %46 = load i32, i32* %3, align 4
  %47 = icmp sgt i32 %46, 1
  br i1 %47, label %48, label %64

48:                                               ; preds = %45
  store i32 0, i32* %1, align 4
  br label %49

49:                                               ; preds = %60, %48
  %50 = load i32, i32* %1, align 4
  %51 = load i32, i32* %3, align 4
  %52 = sub nsw i32 %51, 1
  %53 = icmp slt i32 %50, %52
  br i1 %53, label %54, label %63

54:                                               ; preds = %49
  %55 = load i32, i32* %1, align 4
  %56 = sext i32 %55 to i64
  %57 = getelementptr inbounds [301 x i32], [301 x i32]* %4, i64 0, i64 %56
  %58 = load i32, i32* %57, align 4
  %59 = call i32 (i8*, ...) @printf(i8* getelementptr inbounds ([4 x i8], [4 x i8]* @.str.1, i64 0, i64 0), i32 %58)
  br label %60

60:                                               ; preds = %54
  %61 = load i32, i32* %1, align 4
  %62 = add nsw i32 %61, 1
  store i32 %62, i32* %1, align 4
  br label %49

63:                                               ; preds = %49
  br label %64

64:                                               ; preds = %63, %45
  %65 = load i32, i32* %3, align 4
  %66 = sub nsw i32 %65, 1
  %67 = sext i32 %66 to i64
  %68 = getelementptr inbounds [301 x i32], [301 x i32]* %4, i64 0, i64 %67
  %69 = load i32, i32* %68, align 4
  %70 = call i32 (i8*, ...) @printf(i8* getelementptr inbounds ([4 x i8], [4 x i8]* @.str.2, i64 0, i64 0), i32 %69)
  ret void
}

; Function Attrs: argmemonly nounwind willreturn
declare void @llvm.memset.p0i8.i64(i8* nocapture writeonly, i8, i64, i1 immarg) #1

declare dso_local i32 @__isoc99_scanf(i8*, ...) #2

declare dso_local i32 @printf(i8*, ...) #2


!llvm.module.flags = !{!0}
!llvm.ident = !{!1}

!0 = !{i32 1, !"wchar_size", i32 4}
!1 = !{!"clang version 10.0.0-4ubuntu1 "}
