; ModuleID = 'source-C-CXX/52/1330.c'
source_filename = "source-C-CXX/52/1330.c"
target datalayout = "e-m:e-p270:32:32-p271:32:32-p272:64:64-i64:64-f80:128-n8:16:32:64-S128"
target triple = "x86_64-pc-linux-gnu"

@.str = private unnamed_addr constant [3 x i8] c"%d\00", align 1
@.str.1 = private unnamed_addr constant [4 x i8] c"%d,\00", align 1
@.str.2 = private unnamed_addr constant [4 x i8] c"%d\0A\00", align 1

; Function Attrs: nofree nounwind sspstrong uwtable
define dso_local void @main() local_unnamed_addr #0 {
  %1 = alloca [301 x i32], align 16
  %2 = alloca i32, align 4
  %3 = alloca i32, align 4
  %4 = bitcast [301 x i32]* %1 to i8*
  call void @llvm.lifetime.start.p0i8(i64 1204, i8* nonnull %4) #4
  call void @llvm.memset.p0i8.i64(i8* noundef nonnull align 16 dereferenceable(1204) %4, i8 0, i64 1204, i1 false)
  %5 = bitcast i32* %2 to i8*
  call void @llvm.lifetime.start.p0i8(i64 4, i8* nonnull %5) #4
  %6 = bitcast i32* %3 to i8*
  call void @llvm.lifetime.start.p0i8(i64 4, i8* nonnull %6) #4
  %7 = call i32 (i8*, ...) @__isoc99_scanf(i8* getelementptr inbounds ([3 x i8], [3 x i8]* @.str, i64 0, i64 0), i32* nonnull %2)
  %8 = load i32, i32* %2, align 4, !tbaa !5
  %9 = icmp sgt i32 %8, 0
  br i1 %9, label %10, label %47

10:                                               ; preds = %0, %30
  %11 = phi i32 [ %31, %30 ], [ 0, %0 ]
  %12 = phi i32 [ %32, %30 ], [ 0, %0 ]
  %13 = call i32 (i8*, ...) @__isoc99_scanf(i8* getelementptr inbounds ([3 x i8], [3 x i8]* @.str, i64 0, i64 0), i32* nonnull %3)
  %14 = load i32, i32* %3, align 4
  %15 = icmp sgt i32 %11, 0
  br i1 %15, label %16, label %26

16:                                               ; preds = %10
  %17 = zext i32 %11 to i64
  br label %20

18:                                               ; preds = %20
  %19 = icmp eq i64 %25, %17
  br i1 %19, label %26, label %20, !llvm.loop !9

20:                                               ; preds = %16, %18
  %21 = phi i64 [ 0, %16 ], [ %25, %18 ]
  %22 = getelementptr inbounds [301 x i32], [301 x i32]* %1, i64 0, i64 %21
  %23 = load i32, i32* %22, align 4, !tbaa !5
  %24 = icmp eq i32 %14, %23
  %25 = add nuw nsw i64 %21, 1
  br i1 %24, label %30, label %18

26:                                               ; preds = %18, %10
  %27 = add nsw i32 %11, 1
  %28 = sext i32 %11 to i64
  %29 = getelementptr inbounds [301 x i32], [301 x i32]* %1, i64 0, i64 %28
  store i32 %14, i32* %29, align 4, !tbaa !5
  br label %30

30:                                               ; preds = %20, %26
  %31 = phi i32 [ %27, %26 ], [ %11, %20 ]
  %32 = add nuw nsw i32 %12, 1
  %33 = load i32, i32* %2, align 4, !tbaa !5
  %34 = icmp slt i32 %32, %33
  br i1 %34, label %10, label %35, !llvm.loop !11

35:                                               ; preds = %30
  %36 = icmp sgt i32 %31, 1
  br i1 %36, label %37, label %47

37:                                               ; preds = %35
  %38 = add nsw i32 %31, -1
  %39 = zext i32 %38 to i64
  br label %40

40:                                               ; preds = %37, %40
  %41 = phi i64 [ 0, %37 ], [ %45, %40 ]
  %42 = getelementptr inbounds [301 x i32], [301 x i32]* %1, i64 0, i64 %41
  %43 = load i32, i32* %42, align 4, !tbaa !5
  %44 = call i32 (i8*, ...) @printf(i8* nonnull dereferenceable(1) getelementptr inbounds ([4 x i8], [4 x i8]* @.str.1, i64 0, i64 0), i32 %43)
  %45 = add nuw nsw i64 %41, 1
  %46 = icmp eq i64 %45, %39
  br i1 %46, label %47, label %40, !llvm.loop !12

47:                                               ; preds = %40, %0, %35
  %48 = phi i32 [ %31, %35 ], [ 0, %0 ], [ %31, %40 ]
  %49 = add nsw i32 %48, -1
  %50 = sext i32 %49 to i64
  %51 = getelementptr inbounds [301 x i32], [301 x i32]* %1, i64 0, i64 %50
  %52 = load i32, i32* %51, align 4, !tbaa !5
  %53 = call i32 (i8*, ...) @printf(i8* nonnull dereferenceable(1) getelementptr inbounds ([4 x i8], [4 x i8]* @.str.2, i64 0, i64 0), i32 %52)
  call void @llvm.lifetime.end.p0i8(i64 4, i8* nonnull %6) #4
  call void @llvm.lifetime.end.p0i8(i64 4, i8* nonnull %5) #4
  call void @llvm.lifetime.end.p0i8(i64 1204, i8* nonnull %4) #4
  ret void
}

; Function Attrs: argmemonly mustprogress nofree nosync nounwind willreturn
declare void @llvm.lifetime.start.p0i8(i64 immarg, i8* nocapture) #1

; Function Attrs: argmemonly mustprogress nofree nounwind willreturn writeonly
declare void @llvm.memset.p0i8.i64(i8* nocapture writeonly, i8, i64, i1 immarg) #2

; Function Attrs: nofree nounwind
declare noundef i32 @__isoc99_scanf(i8* nocapture noundef readonly, ...) local_unnamed_addr #3

; Function Attrs: nofree nounwind
declare noundef i32 @printf(i8* nocapture noundef readonly, ...) local_unnamed_addr #3

; Function Attrs: argmemonly mustprogress nofree nosync nounwind willreturn
declare void @llvm.lifetime.end.p0i8(i64 immarg, i8* nocapture) #1


!llvm.module.flags = !{!0, !1, !2, !3}
!llvm.ident = !{!4}

!0 = !{i32 1, !"wchar_size", i32 4}
!1 = !{i32 7, !"PIC Level", i32 2}
!2 = !{i32 7, !"PIE Level", i32 2}
!3 = !{i32 7, !"uwtable", i32 1}
!4 = !{!"clang version 13.0.0"}
!5 = !{!6, !6, i64 0}
!6 = !{!"int", !7, i64 0}
!7 = !{!"omnipotent char", !8, i64 0}
!8 = !{!"Simple C/C++ TBAA"}
!9 = distinct !{!9, !10}
!10 = !{!"llvm.loop.mustprogress"}
!11 = distinct !{!11, !10}
!12 = distinct !{!12, !10}
